; Function Attrs: nounwind uwtable
define internal noundef i32 @mxf_read_track(ptr noundef %0, ptr noundef %1, i32 noundef %2, i32 noundef %3, ptr readnone captures(none) %4, i64 %5) #1 {
  switch i32 %2, label %mxf_read_utf16be_string.exit [
    i32 18433, label %7
    i32 18436, label %10
    i32 18434, label %13
    i32 19201, label %26
    i32 18435, label %31
  ]

7:                                                ; preds = %6
  %8 = tail call i32 @avio_rb32(ptr noundef %1) #15
  %9 = getelementptr inbounds nuw i8, ptr %0, i64 48
  store i32 %8, ptr %9, align 8, !tbaa !94
  br label %mxf_read_utf16be_string.exit

10:                                               ; preds = %6
  %11 = getelementptr inbounds nuw i8, ptr %0, i64 64
  %12 = tail call i32 @avio_read(ptr noundef %1, ptr noundef nonnull %11, i32 noundef 4) #15
  br label %mxf_read_utf16be_string.exit

13:                                               ; preds = %6
  %14 = getelementptr inbounds nuw i8, ptr %0, i64 56
  %or.cond.i.i = icmp ugt i32 %3, 1073741823
  br i1 %or.cond.i.i, label %mxf_read_utf16be_string.exit, label %15

15:                                               ; preds = %13
  %16 = lshr i32 %3, 1
  %17 = add nuw nsw i32 %3, 1
  %18 = add nuw nsw i32 %17, %16
  %19 = zext nneg i32 %18 to i64
  %20 = load ptr, ptr %14, align 8, !tbaa !245
  tail call void @av_free(ptr noundef %20) #15
  %21 = tail call noalias ptr @av_malloc(i64 noundef %19) #15
  store ptr %21, ptr %14, align 8, !tbaa !245
  %.not.i.i = icmp eq ptr %21, null
  br i1 %.not.i.i, label %mxf_read_utf16be_string.exit, label %22

22:                                               ; preds = %15
  %23 = tail call i32 @avio_get_str16be(ptr noundef %1, i32 noundef %3, ptr noundef nonnull %21, i32 noundef %18) #15
  %24 = icmp slt i32 %23, 0
  br i1 %24, label %25, label %mxf_read_utf16be_string.exit

25:                                               ; preds = %22
  tail call void @av_freep(ptr noundef nonnull %14) #15
  br label %mxf_read_utf16be_string.exit

26:                                               ; preds = %6
  %27 = tail call i32 @avio_rb32(ptr noundef %1) #15
  %28 = getelementptr inbounds nuw i8, ptr %0, i64 68
  store i32 %27, ptr %28, align 4, !tbaa !139
  %29 = tail call i32 @avio_rb32(ptr noundef %1) #15
  %30 = getelementptr inbounds nuw i8, ptr %0, i64 72
  store i32 %29, ptr %30, align 4, !tbaa !140
  br label %mxf_read_utf16be_string.exit

31:                                               ; preds = %6
  %32 = getelementptr inbounds nuw i8, ptr %0, i64 32
  %33 = tail call i32 @avio_read(ptr noundef %1, ptr noundef nonnull %32, i32 noundef 16) #15
  br label %mxf_read_utf16be_string.exit

mxf_read_utf16be_string.exit:                     ; preds = %25, %22, %15, %13, %31, %26, %10, %7, %6
  ret i32 0
}